target datalayout = "e-m:e-p270:32:32-p271:32:32-p272:64:64-i64:64-i128:128-f80:128-n8:16:32:64-S128"
target triple = "x86_64-unknown-linux-gnu"

%"class.llvh::MutableArrayRef" = type { %"class.llvh::ArrayRef" }
%"class.llvh::ArrayRef" = type { ptr, i64 }
%"struct.hermes::hbc::BytecodeFileFields" = type { ptr, %"class.llvh::MutableArrayRef.0", %"class.llvh::MutableArrayRef.2", %"class.llvh::MutableArrayRef.4", %"class.llvh::MutableArrayRef.6", %"class.llvh::MutableArrayRef.8", %"class.llvh::MutableArrayRef", %"class.llvh::MutableArrayRef", %"class.llvh::MutableArrayRef", %"class.llvh::MutableArrayRef", %"class.llvh::MutableArrayRef.10", %"class.llvh::MutableArrayRef", %"class.llvh::MutableArrayRef.12", %"class.llvh::MutableArrayRef", %"class.llvh::MutableArrayRef.14", %"class.llvh::MutableArrayRef.14", %"class.llvh::MutableArrayRef.14" }
%"class.llvh::MutableArrayRef.0" = type { %"class.llvh::ArrayRef.1" }
%"class.llvh::ArrayRef.1" = type { ptr, i64 }
%"class.llvh::MutableArrayRef.2" = type { %"class.llvh::ArrayRef.3" }
%"class.llvh::ArrayRef.3" = type { ptr, i64 }
%"class.llvh::MutableArrayRef.4" = type { %"class.llvh::ArrayRef.5" }
%"class.llvh::ArrayRef.5" = type { ptr, i64 }
%"class.llvh::MutableArrayRef.6" = type { %"class.llvh::ArrayRef.7" }
%"class.llvh::ArrayRef.7" = type { ptr, i64 }
%"class.llvh::MutableArrayRef.8" = type { %"class.llvh::ArrayRef.9" }
%"class.llvh::ArrayRef.9" = type { ptr, i64 }
%"class.llvh::MutableArrayRef.10" = type { %"class.llvh::ArrayRef.11" }
%"class.llvh::ArrayRef.11" = type { ptr, i64 }
%"class.llvh::MutableArrayRef.12" = type { %"class.llvh::ArrayRef.13" }
%"class.llvh::ArrayRef.13" = type { ptr, i64 }
%"class.llvh::MutableArrayRef.14" = type { %"class.llvh::ArrayRef.15" }
%"class.llvh::ArrayRef.15" = type { ptr, i64 }
%"class.(anonymous namespace)::BytecodeFormConverter" = type { %"class.llvh::MutableArrayRef", %"struct.hermes::hbc::BytecodeFileFields", %"class.std::unique_ptr" }
%"class.std::unique_ptr" = type { %"struct.std::__uniq_ptr_data" }
%"struct.std::__uniq_ptr_data" = type { %"class.std::__uniq_ptr_impl" }
%"class.std::__uniq_ptr_impl" = type { %"class.std::tuple" }
%"class.std::tuple" = type { %"struct.std::_Tuple_impl" }
%"struct.std::_Tuple_impl" = type { %"struct.std::_Head_base.17" }
%"struct.std::_Head_base.17" = type { ptr }
%"struct.(anonymous namespace)::BytecodeFormConverter<hermes::hbc::BytecodeForm::Delta>::Adjuster" = type { i64 }
%"struct.hermes::hbc::SmallStringTableEntry" = type { i32 }

; Function Attrs: mustprogress nounwind uwtable
define linkonce_odr hidden noundef ptr @_ZNK4llvh8ArrayRefIN6hermes3hbc21SmallStringTableEntryEE4dataEv(ptr noundef nonnull align 8 dereferenceable(16) %this) #0 comdat align 2 {
entry:
  %this.addr = alloca ptr, align 8
  store ptr %this, ptr %this.addr, align 8
  %this1 = load ptr, ptr %this.addr, align 8
  %Data = getelementptr inbounds %"class.llvh::ArrayRef.3", ptr %this1, i32 0, i32 0
  %0 = load ptr, ptr %Data, align 8
  ret ptr %0
}

; Function Attrs: mustprogress nounwind uwtable
define linkonce_odr hidden noundef i64 @_ZNK4llvh8ArrayRefIN6hermes3hbc21SmallStringTableEntryEE4sizeEv(ptr noundef nonnull align 8 dereferenceable(16) %this) #0 comdat align 2 {
entry:
  %this.addr = alloca ptr, align 8
  store ptr %this, ptr %this.addr, align 8
  %this1 = load ptr, ptr %this.addr, align 8
  %Length = getelementptr inbounds %"class.llvh::ArrayRef.3", ptr %this1, i32 0, i32 1
  %0 = load i64, ptr %Length, align 8
  ret i64 %0
}

; Function Attrs: mustprogress nounwind uwtable
define linkonce_odr hidden noundef ptr @_ZNK4llvh15MutableArrayRefIN6hermes3hbc21SmallStringTableEntryEE4dataEv(ptr noundef nonnull align 8 dereferenceable(16) %this) #0 comdat align 2 {
entry:
  %this.addr = alloca ptr, align 8
  store ptr %this, ptr %this.addr, align 8
  %this1 = load ptr, ptr %this.addr, align 8
  %call = call noundef ptr @_ZNK4llvh8ArrayRefIN6hermes3hbc21SmallStringTableEntryEE4dataEv(ptr noundef nonnull align 8 dereferenceable(16) %this1)
  ret ptr %call
}

; Function Attrs: mustprogress nounwind uwtable
define internal noundef i32 @_ZN12_GLOBAL__N_121BytecodeFormConverterILN6hermes3hbc12BytecodeFormE1EE8Adjuster5applyIjEET_S7_(ptr noundef nonnull align 8 dereferenceable(8) %this, i32 noundef %value) #0 align 2 {
entry:
  %this.addr = alloca ptr, align 8
  %value.addr = alloca i32, align 4
  %result = alloca i64, align 8
  store ptr %this, ptr %this.addr, align 8
  store i32 %value, ptr %value.addr, align 4
  %this1 = load ptr, ptr %this.addr, align 8
  %0 = load i32, ptr %value.addr, align 4
  %conv = zext i32 %0 to i64
  %current_ = getelementptr inbounds %"struct.(anonymous namespace)::BytecodeFormConverter<hermes::hbc::BytecodeForm::Delta>::Adjuster", ptr %this1, i32 0, i32 0
  %1 = load i64, ptr %current_, align 8
  %sub = sub i64 %conv, %1
  store i64 %sub, ptr %result, align 8
  %2 = load i32, ptr %value.addr, align 4
  %conv2 = zext i32 %2 to i64
  %current_3 = getelementptr inbounds %"struct.(anonymous namespace)::BytecodeFormConverter<hermes::hbc::BytecodeForm::Delta>::Adjuster", ptr %this1, i32 0, i32 0
  store i64 %conv2, ptr %current_3, align 8
  %3 = load i64, ptr %result, align 8
  %conv4 = trunc i64 %3 to i32
  ret i32 %conv4
}

; Function Attrs: mustprogress nounwind uwtable
define linkonce_odr hidden noundef ptr @_ZNK4llvh15MutableArrayRefIN6hermes3hbc21SmallStringTableEntryEE3endEv(ptr noundef nonnull align 8 dereferenceable(16) %this) #0 comdat align 2 {
entry:
  %this.addr = alloca ptr, align 8
  store ptr %this, ptr %this.addr, align 8
  %this1 = load ptr, ptr %this.addr, align 8
  %call = call noundef ptr @_ZNK4llvh15MutableArrayRefIN6hermes3hbc21SmallStringTableEntryEE4dataEv(ptr noundef nonnull align 8 dereferenceable(16) %this1)
  %call2 = call noundef i64 @_ZNK4llvh8ArrayRefIN6hermes3hbc21SmallStringTableEntryEE4sizeEv(ptr noundef nonnull align 8 dereferenceable(16) %this1)
  %add.ptr = getelementptr inbounds %"struct.hermes::hbc::SmallStringTableEntry", ptr %call, i64 %call2
  ret ptr %add.ptr
}

; Function Attrs: mustprogress nounwind uwtable
define linkonce_odr hidden noundef ptr @_ZNK4llvh15MutableArrayRefIN6hermes3hbc21SmallStringTableEntryEE5beginEv(ptr noundef nonnull align 8 dereferenceable(16) %this) #0 comdat align 2 {
entry:
  %this.addr = alloca ptr, align 8
  store ptr %this, ptr %this.addr, align 8
  %this1 = load ptr, ptr %this.addr, align 8
  %call = call noundef ptr @_ZNK4llvh15MutableArrayRefIN6hermes3hbc21SmallStringTableEntryEE4dataEv(ptr noundef nonnull align 8 dereferenceable(16) %this1)
  ret ptr %call
}

; Function Attrs: mustprogress nounwind uwtable
define internal void @_ZN12_GLOBAL__N_121BytecodeFormConverterILN6hermes3hbc12BytecodeFormE1EE8AdjusterC2Ev(ptr noundef nonnull align 8 dereferenceable(8) %this) unnamed_addr #0 align 2 {
entry:
  %this.addr = alloca ptr, align 8
  store ptr %this, ptr %this.addr, align 8
  %this1 = load ptr, ptr %this.addr, align 8
  %current_ = getelementptr inbounds %"struct.(anonymous namespace)::BytecodeFormConverter<hermes::hbc::BytecodeForm::Delta>::Adjuster", ptr %this1, i32 0, i32 0
  store i64 0, ptr %current_, align 8
  ret void
}

; Function Attrs: mustprogress nounwind uwtable
define internal void @_ZN12_GLOBAL__N_121BytecodeFormConverterILN6hermes3hbc12BytecodeFormE1EE18processStringTableEv(ptr noundef nonnull align 8 dereferenceable(288) %this) #0 align 2 {
entry:
  %this.addr = alloca ptr, align 8
  %offsetAdj = alloca %"struct.(anonymous namespace)::BytecodeFormConverter<hermes::hbc::BytecodeForm::Delta>::Adjuster", align 8
  %__range2 = alloca ptr, align 8
  %__begin2 = alloca ptr, align 8
  %__end2 = alloca ptr, align 8
  %entry3 = alloca ptr, align 8
  store ptr %this, ptr %this.addr, align 8
  %this1 = load ptr, ptr %this.addr, align 8
  call void @_ZN12_GLOBAL__N_121BytecodeFormConverterILN6hermes3hbc12BytecodeFormE1EE8AdjusterC2Ev(ptr noundef nonnull align 8 dereferenceable(8) %offsetAdj) #10
  %fields_ = getelementptr inbounds %"class.(anonymous namespace)::BytecodeFormConverter", ptr %this1, i32 0, i32 1
  %stringTableEntries = getelementptr inbounds %"struct.hermes::hbc::BytecodeFileFields", ptr %fields_, i32 0, i32 2
  store ptr %stringTableEntries, ptr %__range2, align 8
  %0 = load ptr, ptr %__range2, align 8
  %call = call noundef ptr @_ZNK4llvh15MutableArrayRefIN6hermes3hbc21SmallStringTableEntryEE5beginEv(ptr noundef nonnull align 8 dereferenceable(16) %0)
  store ptr %call, ptr %__begin2, align 8
  %1 = load ptr, ptr %__range2, align 8
  %call2 = call noundef ptr @_ZNK4llvh15MutableArrayRefIN6hermes3hbc21SmallStringTableEntryEE3endEv(ptr noundef nonnull align 8 dereferenceable(16) %1)
  store ptr %call2, ptr %__end2, align 8
  br label %for.cond

for.cond:                                         ; preds = %for.inc, %entry
  %2 = load ptr, ptr %__begin2, align 8
  %3 = load ptr, ptr %__end2, align 8
  %cmp = icmp ne ptr %2, %3
  br i1 %cmp, label %for.body, label %for.end

for.body:                                         ; preds = %for.cond
  %4 = load ptr, ptr %__begin2, align 8
  store ptr %4, ptr %entry3, align 8
  %5 = load ptr, ptr %entry3, align 8
  %bf.load = load i32, ptr %5, align 1
  %bf.lshr = lshr i32 %bf.load, 1
  %bf.clear = and i32 %bf.lshr, 8388607
  %call4 = call noundef i32 @_ZN12_GLOBAL__N_121BytecodeFormConverterILN6hermes3hbc12BytecodeFormE1EE8Adjuster5applyIjEET_S7_(ptr noundef nonnull align 8 dereferenceable(8) %offsetAdj, i32 noundef %bf.clear)
  %6 = load ptr, ptr %entry3, align 8
  %bf.load5 = load i32, ptr %6, align 1
  %bf.value = and i32 %call4, 8388607
  %bf.shl = shl i32 %bf.value, 1
  %bf.clear6 = and i32 %bf.load5, -16777215
  %bf.set = or i32 %bf.clear6, %bf.shl
  store i32 %bf.set, ptr %6, align 1
  br label %for.inc

for.inc:                                          ; preds = %for.body
  %7 = load ptr, ptr %__begin2, align 8
  %incdec.ptr = getelementptr inbounds %"struct.hermes::hbc::SmallStringTableEntry", ptr %7, i32 1
  store ptr %incdec.ptr, ptr %__begin2, align 8
  br label %for.cond

for.end:                                          ; preds = %for.cond
  ret void
}